target datalayout = "e-m:e-p270:32:32-p271:32:32-p272:64:64-i64:64-i128:128-f80:128-n8:16:32:64-S128"
target triple = "x86_64-pc-linux-gnu"

%struct.blake2s_md_data_st = type { %struct.blake2s_ctx_st, %struct.blake2s_param_st }
%struct.blake2s_ctx_st = type { [8 x i32], [2 x i32], [2 x i32], [64 x i8], i64, i64 }
%struct.blake2s_param_st = type { i8, i8, i8, i8, [4 x i8], [6 x i8], i8, i8, [8 x i8], [8 x i8] }

; Function Attrs: nounwind uwtable
define internal i32 @ossl_blake2s256_init(ptr noundef %0) #0 {
  %2 = alloca ptr, align 8
  %3 = alloca ptr, align 8
  %4 = alloca i8, align 1
  store ptr %0, ptr %2, align 8, !tbaa !3
  call void @llvm.lifetime.start.p0(i64 8, ptr %3) #5
  %5 = load ptr, ptr %2, align 8, !tbaa !3
  store ptr %5, ptr %3, align 8, !tbaa !9
  call void @llvm.lifetime.start.p0(i64 1, ptr %4) #5
  %6 = load ptr, ptr %3, align 8, !tbaa !9
  %7 = getelementptr inbounds nuw %struct.blake2s_md_data_st, ptr %6, i32 0, i32 1
  %8 = getelementptr inbounds nuw %struct.blake2s_param_st, ptr %7, i32 0, i32 0
  %9 = load i8, ptr %8, align 8, !tbaa !13
  store i8 %9, ptr %4, align 1, !tbaa !28
  %10 = load ptr, ptr %3, align 8, !tbaa !9
  %11 = getelementptr inbounds nuw %struct.blake2s_md_data_st, ptr %10, i32 0, i32 1
  call void @ossl_blake2s_param_init(ptr noundef %11)
  %12 = load i8, ptr %4, align 1, !tbaa !28
  %13 = zext i8 %12 to i32
  %14 = icmp ne i32 %13, 0
  br i1 %14, label %15, label %20

15:                                               ; preds = %1
  %16 = load i8, ptr %4, align 1, !tbaa !28
  %17 = load ptr, ptr %3, align 8, !tbaa !9
  %18 = getelementptr inbounds nuw %struct.blake2s_md_data_st, ptr %17, i32 0, i32 1
  %19 = getelementptr inbounds nuw %struct.blake2s_param_st, ptr %18, i32 0, i32 0
  store i8 %16, ptr %19, align 8, !tbaa !13
  br label %20

20:                                               ; preds = %15, %1
  %21 = load ptr, ptr %3, align 8, !tbaa !9
  %22 = getelementptr inbounds nuw %struct.blake2s_md_data_st, ptr %21, i32 0, i32 0
  %23 = load ptr, ptr %3, align 8, !tbaa !9
  %24 = getelementptr inbounds nuw %struct.blake2s_md_data_st, ptr %23, i32 0, i32 1
  %25 = call i32 @ossl_blake2s_init(ptr noundef %22, ptr noundef %24)
  call void @llvm.lifetime.end.p0(i64 1, ptr %4) #5
  call void @llvm.lifetime.end.p0(i64 8, ptr %3) #5
  ret i32 %25
}

; Function Attrs: nounwind uwtable
define internal i32 @blake2s256_internal_init(ptr noundef %0, ptr noundef %1) #0 {
  %3 = alloca ptr, align 8
  %4 = alloca ptr, align 8
  store ptr %0, ptr %3, align 8, !tbaa !3
  store ptr %1, ptr %4, align 8, !tbaa !7
  %5 = call i32 @ossl_prov_is_running()
  %6 = icmp ne i32 %5, 0
  br i1 %6, label %7, label %16

7:                                                ; preds = %2
  %8 = load ptr, ptr %3, align 8, !tbaa !3
  %9 = load ptr, ptr %4, align 8, !tbaa !7
  %10 = call i32 @ossl_blake2s_set_ctx_params(ptr noundef %8, ptr noundef %9)
  %11 = icmp ne i32 %10, 0
  br i1 %11, label %12, label %16

12:                                               ; preds = %7
  %13 = load ptr, ptr %3, align 8, !tbaa !3
  %14 = call i32 @ossl_blake2s256_init(ptr noundef %13)
  %15 = icmp ne i32 %14, 0
  br label %16

16:                                               ; preds = %12, %7, %2
  %17 = phi i1 [ false, %7 ], [ false, %2 ], [ %15, %12 ]
  %18 = zext i1 %17 to i32
  ret i32 %18
}